target datalayout = "e-m:e-p270:32:32-p271:32:32-p272:64:64-i64:64-i128:128-f80:128-n8:16:32:64-S128"
target triple = "x86_64-pc-linux-gnu"

%struct.__va_list_tag = type { i32, i32, ptr, ptr }

@.str.9 = private unnamed_addr constant [19 x i8] c"MOLD_WRAPPER_DEBUG\00", align 1
@stderr = external global ptr, align 8
@.str.10 = private unnamed_addr constant [18 x i8] c"mold-wrapper.so: \00", align 1

; Function Attrs: nounwind uwtable
define internal void @debug_print(ptr noundef %0, ...) #0 {
  %2 = alloca ptr, align 8
  %3 = alloca [1 x %struct.__va_list_tag], align 16
  store ptr %0, ptr %2, align 8, !tbaa !3
  %4 = call ptr @getenv(ptr noundef @.str.9) #8
  %5 = icmp ne ptr %4, null
  br i1 %5, label %7, label %6

6:                                                ; preds = %1
  br label %18

7:                                                ; preds = %1
  call void @llvm.lifetime.start.p0(i64 24, ptr %3) #8
  %8 = getelementptr inbounds [1 x %struct.__va_list_tag], ptr %3, i64 0, i64 0
  call void @llvm.va_start.p0(ptr %8)
  %9 = load ptr, ptr @stderr, align 8, !tbaa !16
  %10 = call i32 (ptr, ptr, ...) @fprintf(ptr noundef %9, ptr noundef @.str.10) #8
  %11 = load ptr, ptr @stderr, align 8, !tbaa !16
  %12 = load ptr, ptr %2, align 8, !tbaa !3
  %13 = getelementptr inbounds [1 x %struct.__va_list_tag], ptr %3, i64 0, i64 0
  %14 = call i32 @vfprintf(ptr noundef %11, ptr noundef %12, ptr noundef %13) #8
  %15 = load ptr, ptr @stderr, align 8, !tbaa !16
  %16 = call i32 @fflush(ptr noundef %15)
  %17 = getelementptr inbounds [1 x %struct.__va_list_tag], ptr %3, i64 0, i64 0
  call void @llvm.va_end.p0(ptr %17)
  call void @llvm.lifetime.end.p0(i64 24, ptr %3) #8
  br label %18

18:                                               ; preds = %7, %6
  ret void
}