; Function Attrs: nofree nounwind uwtable
define internal void @debug_print(ptr noundef readonly captures(none) %0, ...) unnamed_addr #1 {
  %2 = alloca [1 x %struct.__va_list_tag], align 16
  %3 = tail call ptr @getenv(ptr noundef nonnull @.str.9) #11
  %.not = icmp eq ptr %3, null
  br i1 %.not, label %11, label %4

4:                                                ; preds = %1
  call void @llvm.lifetime.start.p0(i64 24, ptr nonnull %2) #11
  call void @llvm.va_start.p0(ptr nonnull %2)
  %5 = load ptr, ptr @stderr, align 8, !tbaa !3
  %6 = call i64 @fwrite(ptr nonnull @.str.10, i64 17, i64 1, ptr %5) #12
  %7 = load ptr, ptr @stderr, align 8, !tbaa !3
  %8 = call i32 @vfprintf(ptr noundef %7, ptr noundef %0, ptr noundef nonnull %2) #14
  %9 = load ptr, ptr @stderr, align 8, !tbaa !3
  %10 = call i32 @fflush(ptr noundef %9)
  call void @llvm.va_end.p0(ptr nonnull %2)
  call void @llvm.lifetime.end.p0(i64 24, ptr nonnull %2) #11
  br label %11

11:                                               ; preds = %1, %4
  ret void
}